; Function Attrs: mustprogress noreturn uwtable
define internal fastcc void @"_ZNO8pybind116detail15argument_loaderIJEE4callIvNS0_9void_typeERZ25test_submodule_exceptionsRNS_7module_EE4$_12EENSt9enable_ifIXsr3std7is_voidIT_EE5valueES4_E4typeEOT1_"() unnamed_addr #10 align 2 personality ptr @__gxx_personality_v0 {
  %1 = alloca %"class.std::__cxx11::basic_string", align 8
  %2 = alloca %"class.std::allocator", align 1
  call void @llvm.lifetime.start.p0(i64 32, ptr nonnull %1)
  call void @llvm.lifetime.start.p0(i64 1, ptr nonnull %2)
  %3 = tail call ptr @__cxa_allocate_exception(i64 16) #25
  call void @_ZNSaIcEC1Ev(ptr noundef nonnull align 1 dereferenceable(1) %2) #25
  %4 = invoke noundef ptr @_ZNSt7__cxx1112basic_stringIcSt11char_traitsIcESaIcEE13_M_local_dataEv(ptr noundef nonnull align 8 dereferenceable(32) %1)
          to label %.noexc.i.i unwind label %8

.noexc.i.i:                                       ; preds = %0
  invoke void @_ZNSt7__cxx1112basic_stringIcSt11char_traitsIcESaIcEE12_Alloc_hiderC1EPcRKS3_(ptr noundef nonnull align 8 dereferenceable(8) %1, ptr noundef %4, ptr noundef nonnull align 1 dereferenceable(1) %2)
          to label %.noexc5.i.i unwind label %8

.noexc5.i.i:                                      ; preds = %.noexc.i.i
  invoke void @_ZNSt7__cxx1112basic_stringIcSt11char_traitsIcESaIcEE12_M_constructIPKcEEvT_S8_St20forward_iterator_tag(ptr noundef nonnull align 8 dereferenceable(32) %1, ptr noundef nonnull @.str.153, ptr noundef nonnull getelementptr inbounds ([46 x i8], ptr @.str.153, i64 0, i64 45))
          to label %_ZNSt7__cxx1112basic_stringIcSt11char_traitsIcESaIcEEC2IS3_EEPKcRKS3_.exit.i.i unwind label %5

5:                                                ; preds = %.noexc5.i.i
  %6 = landingpad { ptr, i32 }
          cleanup
  call void @_ZNSaIcED2Ev(ptr noundef nonnull align 1 dereferenceable(1) %1) #25
  br label %.body.thread.i.i

_ZNSt7__cxx1112basic_stringIcSt11char_traitsIcESaIcEEC2IS3_EEPKcRKS3_.exit.i.i: ; preds = %.noexc5.i.i
  invoke void @_ZNSt11logic_errorC2ERKNSt7__cxx1112basic_stringIcSt11char_traitsIcESaIcEEE(ptr noundef nonnull align 8 dereferenceable(16) %3, ptr noundef nonnull align 8 dereferenceable(32) %1)
          to label %7 unwind label %.body.i.i

7:                                                ; preds = %_ZNSt7__cxx1112basic_stringIcSt11char_traitsIcESaIcEEC2IS3_EEPKcRKS3_.exit.i.i
  store ptr getelementptr inbounds ({ [5 x ptr] }, ptr @_ZTV12MyException5, i64 0, i32 0, i64 2), ptr %3, align 8
  invoke void @__cxa_throw(ptr nonnull %3, ptr nonnull @_ZTI12MyException5, ptr nonnull @_ZN12MyException5D2Ev) #29
          to label %13 unwind label %.body.i.i

8:                                                ; preds = %.noexc.i.i, %0
  %9 = landingpad { ptr, i32 }
          cleanup
  br label %.body.thread.i.i

.body.thread.i.i:                                 ; preds = %8, %5
  %.pn.ph.i.i = phi { ptr, i32 } [ %6, %5 ], [ %9, %8 ]
  call void @_ZNSaIcED1Ev(ptr noundef nonnull align 1 dereferenceable(1) %2) #25
  br label %11

.body.i.i:                                        ; preds = %7, %_ZNSt7__cxx1112basic_stringIcSt11char_traitsIcESaIcEEC2IS3_EEPKcRKS3_.exit.i.i
  %.0.i.i = phi i1 [ false, %7 ], [ true, %_ZNSt7__cxx1112basic_stringIcSt11char_traitsIcESaIcEEC2IS3_EEPKcRKS3_.exit.i.i ]
  %10 = landingpad { ptr, i32 }
          cleanup
  call void @_ZNSt7__cxx1112basic_stringIcSt11char_traitsIcESaIcEED1Ev(ptr noundef nonnull align 8 dereferenceable(32) %1) #25
  call void @_ZNSaIcED1Ev(ptr noundef nonnull align 1 dereferenceable(1) %2) #25
  br i1 %.0.i.i, label %11, label %12

11:                                               ; preds = %.body.i.i, %.body.thread.i.i
  %.pn4.i.i = phi { ptr, i32 } [ %.pn.ph.i.i, %.body.thread.i.i ], [ %10, %.body.i.i ]
  call void @__cxa_free_exception(ptr %3) #25
  br label %12

12:                                               ; preds = %11, %.body.i.i
  %.pn3.i.i = phi { ptr, i32 } [ %10, %.body.i.i ], [ %.pn4.i.i, %11 ]
  resume { ptr, i32 } %.pn3.i.i

13:                                               ; preds = %7
  unreachable
}